target datalayout = "e-m:e-p270:32:32-p271:32:32-p272:64:64-i64:64-i128:128-f80:128-n8:16:32:64-S128"
target triple = "x86_64-unknown-linux-gnu"

%"class.boost::detail::shared_count" = type { ptr }
%"class.QuantLib::Handle" = type { %"class.boost::shared_ptr.18" }
%"class.boost::shared_ptr.18" = type { ptr, %"class.boost::detail::shared_count" }
%"class.QuantLib::RelinkableHandle" = type { %"class.QuantLib::Handle" }

; Function Attrs: mustprogress uwtable
define void @_ZN8QuantLib17DepositRateHelperC2EdRKNS_6PeriodEjRKNS_8CalendarENS_21BusinessDayConventionEbRKNS_10DayCounterE(ptr noundef nonnull align 8 dereferenceable(224) %this, double noundef %rate, ptr noundef nonnull align 4 dereferenceable(8) %tenor, i32 noundef %fixingDays, ptr noundef nonnull align 8 dereferenceable(16) %calendar, i32 noundef %convention, i1 noundef zeroext %endOfMonth, ptr noundef nonnull align 8 dereferenceable(16) %dayCounter) unnamed_addr #2 align 2 personality ptr @__gxx_personality_v0 {
entry:
  %this.addr = alloca ptr, align 8
  %rate.addr = alloca double, align 8
  %tenor.addr = alloca ptr, align 8
  %fixingDays.addr = alloca i32, align 4
  %calendar.addr = alloca ptr, align 8
  %convention.addr = alloca i32, align 4
  %endOfMonth.addr = alloca i8, align 1
  %dayCounter.addr = alloca ptr, align 8
  %ref.tmp = alloca %"class.QuantLib::RelinkableHandle", align 8
  %exn.slot = alloca ptr, align 8
  %ehselector.slot = alloca i32, align 4
  store ptr %this, ptr %this.addr, align 8, !tbaa !3
  store double %rate, ptr %rate.addr, align 8, !tbaa !55
  store ptr %tenor, ptr %tenor.addr, align 8, !tbaa !3
  store i32 %fixingDays, ptr %fixingDays.addr, align 4, !tbaa !18
  store ptr %calendar, ptr %calendar.addr, align 8, !tbaa !3
  store i32 %convention, ptr %convention.addr, align 4, !tbaa !20
  %storedv = zext i1 %endOfMonth to i8
  store i8 %storedv, ptr %endOfMonth.addr, align 1, !tbaa !22
  store ptr %dayCounter, ptr %dayCounter.addr, align 8, !tbaa !3
  %this1 = load ptr, ptr %this.addr, align 8
  call void @llvm.lifetime.start.p0(i64 16, ptr %ref.tmp) #17
  %0 = load double, ptr %rate.addr, align 8, !tbaa !55
  call void @_ZN8QuantLib15makeQuoteHandleEd(ptr dead_on_unwind writable sret(%"class.QuantLib::RelinkableHandle") align 8 %ref.tmp, double noundef %0)
  %1 = load ptr, ptr %tenor.addr, align 8, !tbaa !3
  %2 = load i32, ptr %fixingDays.addr, align 4, !tbaa !18
  %3 = load ptr, ptr %calendar.addr, align 8, !tbaa !3
  %4 = load i32, ptr %convention.addr, align 4, !tbaa !20
  %5 = load i8, ptr %endOfMonth.addr, align 1, !tbaa !22, !range !29, !noundef !30
  %loadedv = trunc i8 %5 to i1
  %6 = load ptr, ptr %dayCounter.addr, align 8, !tbaa !3
  invoke void @_ZN8QuantLib17DepositRateHelperC2ERKNS_6HandleINS_5QuoteEEERKNS_6PeriodEjRKNS_8CalendarENS_21BusinessDayConventionEbRKNS_10DayCounterE(ptr noundef nonnull align 8 dereferenceable(224) %this1, ptr noundef nonnull align 8 dereferenceable(16) %ref.tmp, ptr noundef nonnull align 4 dereferenceable(8) %1, i32 noundef %2, ptr noundef nonnull align 8 dereferenceable(16) %3, i32 noundef %4, i1 noundef zeroext %loadedv, ptr noundef nonnull align 8 dereferenceable(16) %6)
          to label %invoke.cont unwind label %lpad

invoke.cont:                                      ; preds = %entry
  call void @_ZN8QuantLib6HandleINS_5QuoteEED2Ev(ptr noundef nonnull align 8 dereferenceable(16) %ref.tmp) #17
  call void @llvm.lifetime.end.p0(i64 16, ptr %ref.tmp) #17
  ret void

lpad:                                             ; preds = %entry
  %7 = landingpad { ptr, i32 }
          cleanup
  %8 = extractvalue { ptr, i32 } %7, 0
  store ptr %8, ptr %exn.slot, align 8
  %9 = extractvalue { ptr, i32 } %7, 1
  store i32 %9, ptr %ehselector.slot, align 4
  call void @_ZN8QuantLib6HandleINS_5QuoteEED2Ev(ptr noundef nonnull align 8 dereferenceable(16) %ref.tmp) #17
  call void @llvm.lifetime.end.p0(i64 16, ptr %ref.tmp) #17
  br label %eh.resume

eh.resume:                                        ; preds = %lpad
  %exn = load ptr, ptr %exn.slot, align 8
  %sel = load i32, ptr %ehselector.slot, align 4
  %lpad.val = insertvalue { ptr, i32 } poison, ptr %exn, 0
  %lpad.val2 = insertvalue { ptr, i32 } %lpad.val, i32 %sel, 1
  resume { ptr, i32 } %lpad.val2
}